; Function Attrs: nounwind uwtable
define internal i32 @filter_frame(ptr noundef readonly captures(none) %0, ptr noundef %1) #4 {
  %3 = alloca ptr, align 8
  %4 = alloca %struct.ThreadData, align 8
  store ptr %1, ptr %3, align 8, !tbaa !63
  %5 = getelementptr inbounds nuw i8, ptr %0, i64 16
  %6 = load ptr, ptr %5, align 8, !tbaa !65
  %7 = getelementptr inbounds nuw i8, ptr %6, i64 56
  %8 = load ptr, ptr %7, align 8, !tbaa !60
  %9 = load ptr, ptr %8, align 8, !tbaa !61
  %10 = getelementptr inbounds nuw i8, ptr %6, i64 72
  %11 = load ptr, ptr %10, align 8, !tbaa !39
  call void @llvm.lifetime.start.p0(i64 16, ptr nonnull %4) #16
  %12 = getelementptr inbounds nuw i8, ptr %9, i64 40
  %13 = load i32, ptr %12, align 8, !tbaa !74
  %14 = getelementptr inbounds nuw i8, ptr %9, i64 44
  %15 = load i32, ptr %14, align 4, !tbaa !75
  %16 = tail call ptr @ff_get_video_buffer(ptr noundef %9, i32 noundef %13, i32 noundef %15) #16
  %.not = icmp eq ptr %16, null
  br i1 %.not, label %17, label %18

17:                                               ; preds = %2
  call void @av_frame_free(ptr noundef nonnull %3) #16
  br label %27

18:                                               ; preds = %2
  %19 = tail call i32 @av_frame_copy_props(ptr noundef nonnull %16, ptr noundef %1) #16
  store ptr %1, ptr %4, align 8, !tbaa !76
  %20 = getelementptr inbounds nuw i8, ptr %4, i64 8
  store ptr %16, ptr %20, align 8, !tbaa !78
  %21 = getelementptr inbounds nuw i8, ptr %11, i64 608
  %22 = load ptr, ptr %21, align 8, !tbaa !79
  %23 = getelementptr inbounds nuw i8, ptr %11, i64 556
  %24 = load i32, ptr %23, align 4, !tbaa !50
  %25 = call i32 @ff_filter_execute(ptr noundef nonnull %6, ptr noundef %22, ptr noundef nonnull %4, ptr noundef null, i32 noundef %24) #16
  call void @av_frame_free(ptr noundef nonnull %3) #16
  %26 = call i32 @ff_filter_frame(ptr noundef nonnull %9, ptr noundef nonnull %16) #16
  br label %27

27:                                               ; preds = %18, %17
  %.0 = phi i32 [ %26, %18 ], [ -12, %17 ]
  call void @llvm.lifetime.end.p0(i64 16, ptr nonnull %4) #16
  ret i32 %.0
}